target datalayout = "e-m:e-p270:32:32-p271:32:32-p272:64:64-i64:64-i128:128-f80:128-n8:16:32:64-S128"
target triple = "x86_64-pc-linux-gnu"

; Function Attrs: mustprogress nounwind uwtable
define noundef i32 @_ZN13WirelessFrame18getCenterFrequencyEii(ptr noundef nonnull align 8 dereferenceable(64) %0, i32 noundef %1, i32 noundef %2) #1 align 2 {
  %4 = alloca i32, align 4
  %5 = alloca ptr, align 8
  %6 = alloca i32, align 4
  %7 = alloca i32, align 4
  store ptr %0, ptr %5, align 8
  store i32 %1, ptr %6, align 4
  store i32 %2, ptr %7, align 4
  %8 = load i32, ptr %7, align 4
  %9 = icmp slt i32 %8, 80
  br i1 %9, label %13, label %10

10:                                               ; preds = %3
  %11 = load i32, ptr %6, align 4
  %12 = icmp slt i32 %11, 5180
  br i1 %12, label %13, label %14

13:                                               ; preds = %10, %3
  store i32 -1, ptr %4, align 4
  br label %26

14:                                               ; preds = %10
  %15 = load i32, ptr %6, align 4
  %16 = sub i32 %15, 5180
  %17 = load i32, ptr %7, align 4
  %18 = sdiv i32 %16, %17
  %19 = load i32, ptr %7, align 4
  %20 = mul i32 %18, %19
  %21 = add i32 %20, 5180
  %22 = load i32, ptr %7, align 4
  %23 = sdiv i32 %22, 2
  %24 = add i32 %21, %23
  %25 = sub i32 %24, 10
  store i32 %25, ptr %4, align 4
  br label %26

26:                                               ; preds = %14, %13
  %27 = load i32, ptr %4, align 4
  ret i32 %27
}