; Function Attrs: mustprogress nofree norecurse nosync nounwind willreturn memory(none) uwtable
define noundef i32 @_ZN13WirelessFrame18getCenterFrequencyEii(ptr nocapture noundef nonnull readnone align 8 dereferenceable(64) %0, i32 noundef %1, i32 noundef %2) local_unnamed_addr #9 align 2 {
  %4 = icmp slt i32 %2, 80
  %5 = icmp slt i32 %1, 5180
  %or.cond = or i1 %5, %4
  br i1 %or.cond, label %13, label %6

6:                                                ; preds = %3
  %7 = add nsw i32 %1, -5180
  %8 = urem i32 %7, %2
  %9 = lshr i32 %2, 1
  %10 = add nsw i32 %1, -10
  %11 = add nuw i32 %10, %9
  %12 = sub i32 %11, %8
  br label %13

13:                                               ; preds = %3, %6
  %.0 = phi i32 [ %12, %6 ], [ -1, %3 ]
  ret i32 %.0
}